; Function Attrs: mustprogress uwtable
define hidden noundef zeroext i1 @_ZNK11cmd_context18logic_has_datatypeEv(ptr noundef nonnull align 8 dereferenceable(872) %this) local_unnamed_addr #4 align 2 {
entry:
  %m_logic.i = getelementptr inbounds i8, ptr %this, i64 248
  %0 = load ptr, ptr %m_logic.i, align 8
  %1 = load ptr, ptr @_ZN6symbol4nullE, align 8
  %cmp.i.i.not = icmp eq ptr %0, %1
  br i1 %cmp.i.i.not, label %lor.end, label %lor.rhs

lor.rhs:                                          ; preds = %entry
  %call2 = tail call noundef zeroext i1 @_ZN10smt_logics18logic_has_datatypeERK6symbol(ptr noundef nonnull align 8 dereferenceable(8) %m_logic.i)
  br label %lor.end

lor.end:                                          ; preds = %lor.rhs, %entry
  %2 = phi i1 [ true, %entry ], [ %call2, %lor.rhs ]
  ret i1 %2
}